target datalayout = "e-m:e-p270:32:32-p271:32:32-p272:64:64-i64:64-i128:128-f80:128-n8:16:32:64-S128"
target triple = "x86_64-pc-linux-gnu"

; Function Attrs: mustprogress nounwind uwtable
define dso_local noundef float @_Z6N4Stepfffff(float noundef %0, float noundef %1, float noundef %2, float noundef %3, float noundef %4) #1 {
  %6 = alloca float, align 4
  %7 = alloca float, align 4
  %8 = alloca float, align 4
  %9 = alloca float, align 4
  %10 = alloca float, align 4
  %11 = alloca float, align 4
  %12 = alloca float, align 4
  %13 = alloca i32, align 4
  %14 = alloca float, align 4
  store float %0, ptr %7, align 4, !tbaa !14
  store float %1, ptr %8, align 4, !tbaa !14
  store float %2, ptr %9, align 4, !tbaa !14
  store float %3, ptr %10, align 4, !tbaa !14
  store float %4, ptr %11, align 4, !tbaa !14
  call void @llvm.lifetime.start.p0(i64 4, ptr %12) #8
  %15 = load float, ptr %7, align 4, !tbaa !14
  %16 = load float, ptr %8, align 4, !tbaa !14
  %17 = fmul float 3.000000e+00, %16
  %18 = call float @llvm.fmuladd.f32(float 4.000000e+00, float %15, float %17)
  %19 = load float, ptr %7, align 4, !tbaa !14
  %20 = load float, ptr %9, align 4, !tbaa !14
  %21 = fmul float 2.000000e+00, %20
  %22 = call float @llvm.fmuladd.f32(float %18, float %19, float %21)
  %23 = load float, ptr %7, align 4, !tbaa !14
  %24 = load float, ptr %10, align 4, !tbaa !14
  %25 = call float @llvm.fmuladd.f32(float %22, float %23, float %24)
  store float %25, ptr %12, align 4, !tbaa !14
  %26 = load float, ptr %12, align 4, !tbaa !14
  %27 = fcmp oeq float %26, 0.000000e+00
  br i1 %27, label %28, label %30

28:                                               ; preds = %5
  %29 = load float, ptr %7, align 4, !tbaa !14
  store float %29, ptr %6, align 4
  store i32 1, ptr %13, align 4
  br label %48

30:                                               ; preds = %5
  call void @llvm.lifetime.start.p0(i64 4, ptr %14) #8
  %31 = load float, ptr %7, align 4, !tbaa !14
  %32 = load float, ptr %8, align 4, !tbaa !14
  %33 = fadd float %31, %32
  %34 = load float, ptr %7, align 4, !tbaa !14
  %35 = load float, ptr %9, align 4, !tbaa !14
  %36 = call float @llvm.fmuladd.f32(float %33, float %34, float %35)
  %37 = load float, ptr %7, align 4, !tbaa !14
  %38 = load float, ptr %10, align 4, !tbaa !14
  %39 = call float @llvm.fmuladd.f32(float %36, float %37, float %38)
  %40 = load float, ptr %7, align 4, !tbaa !14
  %41 = load float, ptr %11, align 4, !tbaa !14
  %42 = call float @llvm.fmuladd.f32(float %39, float %40, float %41)
  store float %42, ptr %14, align 4, !tbaa !14
  %43 = load float, ptr %7, align 4, !tbaa !14
  %44 = load float, ptr %14, align 4, !tbaa !14
  %45 = load float, ptr %12, align 4, !tbaa !14
  %46 = fdiv float %44, %45
  %47 = fsub float %43, %46
  store float %47, ptr %6, align 4
  store i32 1, ptr %13, align 4
  call void @llvm.lifetime.end.p0(i64 4, ptr %14) #8
  br label %48

48:                                               ; preds = %30, %28
  call void @llvm.lifetime.end.p0(i64 4, ptr %12) #8
  %49 = load float, ptr %6, align 4
  ret float %49
}