; Function Attrs: mustprogress nofree norecurse nosync nounwind willreturn memory(none) uwtable
define dso_local noundef float @_Z6N4Stepfffff(float noundef %0, float noundef %1, float noundef %2, float noundef %3, float noundef %4) local_unnamed_addr #5 {
  %6 = fmul float %1, 3.000000e+00
  %7 = tail call float @llvm.fmuladd.f32(float %0, float 4.000000e+00, float %6)
  %8 = fmul float %2, 2.000000e+00
  %9 = tail call float @llvm.fmuladd.f32(float %7, float %0, float %8)
  %10 = tail call float @llvm.fmuladd.f32(float %9, float %0, float %3)
  %11 = fcmp oeq float %10, 0.000000e+00
  br i1 %11, label %19, label %12

12:                                               ; preds = %5
  %13 = fadd float %0, %1
  %14 = tail call float @llvm.fmuladd.f32(float %13, float %0, float %2)
  %15 = tail call float @llvm.fmuladd.f32(float %14, float %0, float %3)
  %16 = tail call float @llvm.fmuladd.f32(float %15, float %0, float %4)
  %17 = fdiv float %16, %10
  %18 = fsub float %0, %17
  br label %19

19:                                               ; preds = %5, %12
  %.0 = phi float [ %18, %12 ], [ %0, %5 ]
  ret float %.0
}